; Function Attrs: nounwind uwtable
define ptr @dt_camctl_camera_get_property(ptr noundef readonly captures(none) %0, ptr noundef %1, ptr noundef %2) local_unnamed_addr #0 {
  %4 = alloca ptr, align 8
  %5 = alloca ptr, align 8
  %.not = icmp eq ptr %1, null
  br i1 %.not, label %6, label %18

6:                                                ; preds = %3
  %7 = getelementptr inbounds nuw i8, ptr %0, i64 144
  %8 = load ptr, ptr %7, align 8, !tbaa !6
  %9 = icmp eq ptr %8, null
  br i1 %9, label %10, label %18

10:                                               ; preds = %6
  %11 = getelementptr inbounds nuw i8, ptr %0, i64 136
  %12 = load ptr, ptr %11, align 8, !tbaa !61
  %13 = icmp eq ptr %12, null
  br i1 %13, label %14, label %18

14:                                               ; preds = %10
  %15 = load i32, ptr getelementptr inbounds nuw (i8, ptr @darktable, i64 8), align 8, !tbaa !19
  %16 = and i32 %15, 32
  %.not14 = icmp eq i32 %16, 0
  br i1 %.not14, label %31, label %17

17:                                               ; preds = %14
  tail call void (ptr, ...) @dt_print_ext(ptr noundef nonnull @.str.27) #15
  br label %31

18:                                               ; preds = %10, %6, %3
  %.010 = phi ptr [ %1, %3 ], [ %12, %10 ], [ %8, %6 ]
  %19 = getelementptr inbounds nuw i8, ptr %.010, i64 32800
  %20 = tail call i32 @pthread_mutex_lock(ptr noundef nonnull %19) #15
  call void @llvm.lifetime.start.p0(i64 8, ptr nonnull %4) #15
  store ptr null, ptr %4, align 8, !tbaa !103
  call void @llvm.lifetime.start.p0(i64 8, ptr nonnull %5) #15
  %21 = getelementptr inbounds nuw i8, ptr %.010, i64 32784
  %22 = load ptr, ptr %21, align 8, !tbaa !96
  %23 = call i32 @gp_widget_get_child_by_name(ptr noundef %22, ptr noundef %2, ptr noundef nonnull %5) #15
  %24 = icmp eq i32 %23, 0
  br i1 %24, label %25, label %28

25:                                               ; preds = %18
  %26 = load ptr, ptr %5, align 8, !tbaa !146
  %27 = call i32 @gp_widget_get_value(ptr noundef %26, ptr noundef nonnull %4) #15
  br label %28

28:                                               ; preds = %25, %18
  %29 = call i32 @pthread_mutex_unlock(ptr noundef nonnull %19) #15
  %30 = load ptr, ptr %4, align 8, !tbaa !103
  call void @llvm.lifetime.end.p0(i64 8, ptr nonnull %5) #15
  call void @llvm.lifetime.end.p0(i64 8, ptr nonnull %4) #15
  br label %31

31:                                               ; preds = %14, %17, %28
  %.0 = phi ptr [ %30, %28 ], [ null, %17 ], [ null, %14 ]
  ret ptr %.0
}